target datalayout = "e-m:e-p270:32:32-p271:32:32-p272:64:64-i64:64-i128:128-f80:128-n8:16:32:64-S128"
target triple = "x86_64-unknown-linux-gnu"

%struct.Token = type { i32, ptr, i64, x86_fp80, ptr, i32, ptr, ptr, ptr, ptr, i32, i32, i8, i8, ptr, ptr }
%struct.File = type { ptr, i32, ptr, ptr, i32 }

@base_file = external global ptr, align 8

; Function Attrs: nounwind uwtable
define internal ptr @quote_string(ptr noundef %str) #0 {
entry:
  %str.addr = alloca ptr, align 8
  %bufsize = alloca i32, align 4
  %i = alloca i32, align 4
  %buf = alloca ptr, align 8
  %p = alloca ptr, align 8
  %i12 = alloca i32, align 4
  store ptr %str, ptr %str.addr, align 8
  store i32 3, ptr %bufsize, align 4
  store i32 0, ptr %i, align 4
  br label %for.cond

for.cond:                                         ; preds = %for.inc, %entry
  %0 = load ptr, ptr %str.addr, align 8
  %1 = load i32, ptr %i, align 4
  %idxprom = sext i32 %1 to i64
  %arrayidx = getelementptr inbounds i8, ptr %0, i64 %idxprom
  %2 = load i8, ptr %arrayidx, align 1
  %tobool = icmp ne i8 %2, 0
  br i1 %tobool, label %for.body, label %for.end

for.body:                                         ; preds = %for.cond
  %3 = load ptr, ptr %str.addr, align 8
  %4 = load i32, ptr %i, align 4
  %idxprom1 = sext i32 %4 to i64
  %arrayidx2 = getelementptr inbounds i8, ptr %3, i64 %idxprom1
  %5 = load i8, ptr %arrayidx2, align 1
  %conv = sext i8 %5 to i32
  %cmp = icmp eq i32 %conv, 92
  br i1 %cmp, label %if.then, label %lor.lhs.false

lor.lhs.false:                                    ; preds = %for.body
  %6 = load ptr, ptr %str.addr, align 8
  %7 = load i32, ptr %i, align 4
  %idxprom4 = sext i32 %7 to i64
  %arrayidx5 = getelementptr inbounds i8, ptr %6, i64 %idxprom4
  %8 = load i8, ptr %arrayidx5, align 1
  %conv6 = sext i8 %8 to i32
  %cmp7 = icmp eq i32 %conv6, 34
  br i1 %cmp7, label %if.then, label %if.end

if.then:                                          ; preds = %lor.lhs.false, %for.body
  %9 = load i32, ptr %bufsize, align 4
  %inc = add nsw i32 %9, 1
  store i32 %inc, ptr %bufsize, align 4
  br label %if.end

if.end:                                           ; preds = %if.then, %lor.lhs.false
  %10 = load i32, ptr %bufsize, align 4
  %inc9 = add nsw i32 %10, 1
  store i32 %inc9, ptr %bufsize, align 4
  br label %for.inc

for.inc:                                          ; preds = %if.end
  %11 = load i32, ptr %i, align 4
  %inc10 = add nsw i32 %11, 1
  store i32 %inc10, ptr %i, align 4
  br label %for.cond, !llvm.loop !22

for.end:                                          ; preds = %for.cond
  %12 = load i32, ptr %bufsize, align 4
  %conv11 = sext i32 %12 to i64
  %call = call noalias ptr @calloc(i64 noundef 1, i64 noundef %conv11) #9
  store ptr %call, ptr %buf, align 8
  %13 = load ptr, ptr %buf, align 8
  store ptr %13, ptr %p, align 8
  %14 = load ptr, ptr %p, align 8
  %incdec.ptr = getelementptr inbounds i8, ptr %14, i32 1
  store ptr %incdec.ptr, ptr %p, align 8
  store i8 34, ptr %14, align 1
  store i32 0, ptr %i12, align 4
  br label %for.cond13

for.cond13:                                       ; preds = %for.inc35, %for.end
  %15 = load ptr, ptr %str.addr, align 8
  %16 = load i32, ptr %i12, align 4
  %idxprom14 = sext i32 %16 to i64
  %arrayidx15 = getelementptr inbounds i8, ptr %15, i64 %idxprom14
  %17 = load i8, ptr %arrayidx15, align 1
  %tobool16 = icmp ne i8 %17, 0
  br i1 %tobool16, label %for.body17, label %for.end37

for.body17:                                       ; preds = %for.cond13
  %18 = load ptr, ptr %str.addr, align 8
  %19 = load i32, ptr %i12, align 4
  %idxprom18 = sext i32 %19 to i64
  %arrayidx19 = getelementptr inbounds i8, ptr %18, i64 %idxprom18
  %20 = load i8, ptr %arrayidx19, align 1
  %conv20 = sext i8 %20 to i32
  %cmp21 = icmp eq i32 %conv20, 92
  br i1 %cmp21, label %if.then29, label %lor.lhs.false23

lor.lhs.false23:                                  ; preds = %for.body17
  %21 = load ptr, ptr %str.addr, align 8
  %22 = load i32, ptr %i12, align 4
  %idxprom24 = sext i32 %22 to i64
  %arrayidx25 = getelementptr inbounds i8, ptr %21, i64 %idxprom24
  %23 = load i8, ptr %arrayidx25, align 1
  %conv26 = sext i8 %23 to i32
  %cmp27 = icmp eq i32 %conv26, 34
  br i1 %cmp27, label %if.then29, label %if.end31

if.then29:                                        ; preds = %lor.lhs.false23, %for.body17
  %24 = load ptr, ptr %p, align 8
  %incdec.ptr30 = getelementptr inbounds i8, ptr %24, i32 1
  store ptr %incdec.ptr30, ptr %p, align 8
  store i8 92, ptr %24, align 1
  br label %if.end31

if.end31:                                         ; preds = %if.then29, %lor.lhs.false23
  %25 = load ptr, ptr %str.addr, align 8
  %26 = load i32, ptr %i12, align 4
  %idxprom32 = sext i32 %26 to i64
  %arrayidx33 = getelementptr inbounds i8, ptr %25, i64 %idxprom32
  %27 = load i8, ptr %arrayidx33, align 1
  %28 = load ptr, ptr %p, align 8
  %incdec.ptr34 = getelementptr inbounds i8, ptr %28, i32 1
  store ptr %incdec.ptr34, ptr %p, align 8
  store i8 %27, ptr %28, align 1
  br label %for.inc35

for.inc35:                                        ; preds = %if.end31
  %29 = load i32, ptr %i12, align 4
  %inc36 = add nsw i32 %29, 1
  store i32 %inc36, ptr %i12, align 4
  br label %for.cond13, !llvm.loop !23

for.end37:                                        ; preds = %for.cond13
  %30 = load ptr, ptr %p, align 8
  %incdec.ptr38 = getelementptr inbounds i8, ptr %30, i32 1
  store ptr %incdec.ptr38, ptr %p, align 8
  store i8 34, ptr %30, align 1
  %31 = load ptr, ptr %p, align 8
  %incdec.ptr39 = getelementptr inbounds i8, ptr %31, i32 1
  store ptr %incdec.ptr39, ptr %p, align 8
  store i8 0, ptr %31, align 1
  %32 = load ptr, ptr %buf, align 8
  ret ptr %32
}

; Function Attrs: nounwind uwtable
define internal ptr @new_str_token(ptr noundef %str, ptr noundef %tmpl) #0 {
entry:
  %str.addr = alloca ptr, align 8
  %tmpl.addr = alloca ptr, align 8
  %buf = alloca ptr, align 8
  store ptr %str, ptr %str.addr, align 8
  store ptr %tmpl, ptr %tmpl.addr, align 8
  %0 = load ptr, ptr %str.addr, align 8
  %call = call ptr @quote_string(ptr noundef %0)
  store ptr %call, ptr %buf, align 8
  %1 = load ptr, ptr %tmpl.addr, align 8
  %file = getelementptr inbounds %struct.Token, ptr %1, i32 0, i32 8
  %2 = load ptr, ptr %file, align 16
  %name = getelementptr inbounds %struct.File, ptr %2, i32 0, i32 0
  %3 = load ptr, ptr %name, align 8
  %4 = load ptr, ptr %tmpl.addr, align 8
  %file1 = getelementptr inbounds %struct.Token, ptr %4, i32 0, i32 8
  %5 = load ptr, ptr %file1, align 16
  %file_no = getelementptr inbounds %struct.File, ptr %5, i32 0, i32 1
  %6 = load i32, ptr %file_no, align 8
  %7 = load ptr, ptr %buf, align 8
  %call2 = call ptr @new_file(ptr noundef %3, i32 noundef %6, ptr noundef %7)
  %call3 = call ptr @tokenize(ptr noundef %call2)
  ret ptr %call3
}

; Function Attrs: nounwind uwtable
define internal ptr @base_file_macro(ptr noundef %tmpl) #0 {
entry:
  %tmpl.addr = alloca ptr, align 8
  store ptr %tmpl, ptr %tmpl.addr, align 8
  %0 = load ptr, ptr @base_file, align 8
  %1 = load ptr, ptr %tmpl.addr, align 8
  %call = call ptr @new_str_token(ptr noundef %0, ptr noundef %1)
  ret ptr %call
}